; Function Attrs: mustprogress nounwind uwtable
define dso_local noundef ptr @_ZN5clang13UsingEnumDecl6CreateERNS_10ASTContextEPNS_11DeclContextENS_14SourceLocationES5_S5_PNS_14TypeSourceInfoE(ptr noundef nonnull align 8 dereferenceable(23096) %0, ptr noundef %1, i32 %2, i32 %3, i32 %4, ptr noundef %5) local_unnamed_addr #1 align 2 {
  %7 = tail call noundef ptr @_ZN5clang4DeclnwEmRKNS_10ASTContextEPNS_11DeclContextEm(i64 noundef 72, ptr noundef nonnull align 8 dereferenceable(23096) %0, ptr noundef %1, i64 noundef 0) #25
  %.sroa.0.0.copyload.i = load i64, ptr %5, align 8
  %8 = and i64 %.sroa.0.0.copyload.i, -16
  %9 = inttoptr i64 %8 to ptr
  %10 = load ptr, ptr %9, align 16
  %11 = tail call noundef ptr @_ZNK5clang4Type12getAsTagDeclEv(ptr noundef nonnull align 16 dereferenceable(24) %10) #25
  %12 = getelementptr inbounds nuw i8, ptr %11, i64 40
  %.sroa.0.0.copyload.i11 = load i64, ptr %12, align 8
  tail call void @_ZN5clang4DeclC2ENS0_4KindEPNS_11DeclContextENS_14SourceLocationE(ptr noundef nonnull align 8 dereferenceable(72) %7, i32 noundef 76, ptr noundef %1, i32 %4)
  %13 = getelementptr inbounds nuw i8, ptr %7, i64 40
  store i64 %.sroa.0.0.copyload.i11, ptr %13, align 8
  %14 = getelementptr inbounds nuw i8, ptr %7, i64 48
  store i64 0, ptr %14, align 8
  store ptr getelementptr inbounds nuw inrange(-16, 104) (i8, ptr @_ZTVN5clang13UsingEnumDeclE, i64 16), ptr %7, align 8
  %15 = getelementptr inbounds nuw i8, ptr %7, i64 56
  store i32 %2, ptr %15, align 8
  %16 = getelementptr inbounds nuw i8, ptr %7, i64 60
  store i32 %3, ptr %16, align 4
  %17 = getelementptr inbounds nuw i8, ptr %7, i64 64
  store ptr %5, ptr %17, align 8
  ret ptr %7
}